target datalayout = "e-m:e-p270:32:32-p271:32:32-p272:64:64-i64:64-i128:128-f80:128-n8:16:32:64-S128"
target triple = "x86_64-pc-linux-gnu"

%struct.H5HF_huge_bt2_filt_indir_rec_t = type { i64, i64, i32, i64, i64 }

@H5HF_init_g = external global i8, align 1
@H5_libterm_g = external global i8, align 1
@.str.10 = private unnamed_addr constant [1 x i8] zeroinitializer, align 1
@.str.11 = private unnamed_addr constant [8 x i8] c"Record:\00", align 1
@.str.12 = private unnamed_addr constant [34 x i8] c"%*s%-*s {%lu, %lu, %x, %lu, %lu}\0A\00", align 1

; Function Attrs: nounwind uwtable
define internal i32 @H5HF__huge_bt2_filt_indir_debug(ptr noundef %0, i32 noundef %1, i32 noundef %2, ptr noundef %3, ptr noundef %4) #0 {
  %6 = alloca ptr, align 8
  %7 = alloca i32, align 4
  %8 = alloca i32, align 4
  %9 = alloca ptr, align 8
  %10 = alloca ptr, align 8
  %11 = alloca ptr, align 8
  store ptr %0, ptr %6, align 8, !tbaa !41
  store i32 %1, ptr %7, align 4, !tbaa !25
  store i32 %2, ptr %8, align 4, !tbaa !25
  store ptr %3, ptr %9, align 8, !tbaa !3
  store ptr %4, ptr %10, align 8, !tbaa !3
  call void @llvm.lifetime.start.p0(i64 8, ptr %11) #6
  %12 = load ptr, ptr %9, align 8, !tbaa !3
  store ptr %12, ptr %11, align 8, !tbaa !46
  %13 = load i8, ptr @H5HF_init_g, align 1, !tbaa !9, !range !11, !noundef !12
  %14 = trunc i8 %13 to i1
  br i1 %14, label %19, label %15

15:                                               ; preds = %5
  %16 = load i8, ptr @H5_libterm_g, align 1, !tbaa !9, !range !11, !noundef !12
  %17 = trunc i8 %16 to i1
  %18 = xor i1 %17, true
  br label %19

19:                                               ; preds = %15, %5
  %20 = phi i1 [ true, %5 ], [ %18, %15 ]
  %21 = xor i1 %20, true
  %22 = xor i1 %21, true
  %23 = zext i1 %22 to i32
  %24 = sext i32 %23 to i64
  %25 = call i64 @llvm.expect.i64(i64 %24, i64 1)
  %26 = icmp ne i64 %25, 0
  br i1 %26, label %27, label %47

27:                                               ; preds = %19
  %28 = load ptr, ptr %6, align 8, !tbaa !41
  %29 = load i32, ptr %7, align 4, !tbaa !25
  %30 = load i32, ptr %8, align 4, !tbaa !25
  %31 = load ptr, ptr %11, align 8, !tbaa !46
  %32 = getelementptr inbounds nuw %struct.H5HF_huge_bt2_filt_indir_rec_t, ptr %31, i32 0, i32 0
  %33 = load i64, ptr %32, align 8, !tbaa !48
  %34 = load ptr, ptr %11, align 8, !tbaa !46
  %35 = getelementptr inbounds nuw %struct.H5HF_huge_bt2_filt_indir_rec_t, ptr %34, i32 0, i32 1
  %36 = load i64, ptr %35, align 8, !tbaa !49
  %37 = load ptr, ptr %11, align 8, !tbaa !46
  %38 = getelementptr inbounds nuw %struct.H5HF_huge_bt2_filt_indir_rec_t, ptr %37, i32 0, i32 2
  %39 = load i32, ptr %38, align 8, !tbaa !52
  %40 = load ptr, ptr %11, align 8, !tbaa !46
  %41 = getelementptr inbounds nuw %struct.H5HF_huge_bt2_filt_indir_rec_t, ptr %40, i32 0, i32 3
  %42 = load i64, ptr %41, align 8, !tbaa !53
  %43 = load ptr, ptr %11, align 8, !tbaa !46
  %44 = getelementptr inbounds nuw %struct.H5HF_huge_bt2_filt_indir_rec_t, ptr %43, i32 0, i32 4
  %45 = load i64, ptr %44, align 8, !tbaa !44
  %46 = call i32 (ptr, ptr, ...) @fprintf(ptr noundef %28, ptr noundef @.str.12, i32 noundef %29, ptr noundef @.str.10, i32 noundef %30, ptr noundef @.str.11, i64 noundef %33, i64 noundef %36, i32 noundef %39, i64 noundef %42, i64 noundef %45) #6
  br label %47

47:                                               ; preds = %27, %19
  call void @llvm.lifetime.end.p0(i64 8, ptr %11) #6
  ret i32 0
}